target datalayout = "e-m:e-p270:32:32-p271:32:32-p272:64:64-i64:64-i128:128-f80:128-n8:16:32:64-S128"
target triple = "x86_64-pc-linux-gnu"

%struct.padlock_cipher_data = type { [16 x i8], %union.anon, %struct.aes_key_st }
%union.anon = type { [4 x i32] }
%struct.aes_key_st = type { [60 x i32], i32 }

; Function Attrs: nounwind uwtable
define internal i32 @padlock_ofb_cipher(ptr noundef %0, ptr noundef %1, ptr noundef %2, i64 noundef %3) #0 {
  %5 = alloca i32, align 4
  %6 = alloca ptr, align 8
  %7 = alloca ptr, align 8
  %8 = alloca ptr, align 8
  %9 = alloca i64, align 8
  %10 = alloca ptr, align 8
  %11 = alloca i64, align 8
  %12 = alloca ptr, align 8
  %13 = alloca i32, align 4
  %14 = alloca ptr, align 8
  store ptr %0, ptr %6, align 8, !tbaa !30
  store ptr %1, ptr %7, align 8, !tbaa !10
  store ptr %2, ptr %8, align 8, !tbaa !10
  store i64 %3, ptr %9, align 8, !tbaa !3
  call void @llvm.lifetime.start.p0(i64 8, ptr %10) #7
  %15 = load ptr, ptr %6, align 8, !tbaa !30
  %16 = call ptr @EVP_CIPHER_CTX_get_cipher_data(ptr noundef %15)
  %17 = load ptr, ptr %6, align 8, !tbaa !30
  %18 = call ptr @EVP_CIPHER_CTX_get_cipher_data(ptr noundef %17)
  %19 = ptrtoint ptr %18 to i64
  %20 = and i64 %19, 15
  %21 = sub i64 16, %20
  %22 = and i64 %21, 15
  %23 = getelementptr inbounds nuw i8, ptr %16, i64 %22
  store ptr %23, ptr %10, align 8, !tbaa !32
  call void @llvm.lifetime.start.p0(i64 8, ptr %11) #7
  %24 = load ptr, ptr %6, align 8, !tbaa !30
  %25 = call i32 @EVP_CIPHER_CTX_get_num(ptr noundef %24)
  %26 = sext i32 %25 to i64
  store i64 %26, ptr %11, align 8, !tbaa !3
  %27 = icmp ne i64 %26, 0
  br i1 %27, label %28, label %70

28:                                               ; preds = %4
  call void @llvm.lifetime.start.p0(i64 8, ptr %12) #7
  %29 = load ptr, ptr %6, align 8, !tbaa !30
  %30 = call ptr @EVP_CIPHER_CTX_iv_noconst(ptr noundef %29)
  store ptr %30, ptr %12, align 8, !tbaa !10
  %31 = load i64, ptr %11, align 8, !tbaa !3
  %32 = icmp uge i64 %31, 16
  br i1 %32, label %33, label %34

33:                                               ; preds = %28
  store i32 0, ptr %5, align 4
  store i32 1, ptr %13, align 4
  br label %67

34:                                               ; preds = %28
  br label %35

35:                                               ; preds = %43, %34
  %36 = load i64, ptr %11, align 8, !tbaa !3
  %37 = icmp ult i64 %36, 16
  br i1 %37, label %38, label %41

38:                                               ; preds = %35
  %39 = load i64, ptr %9, align 8, !tbaa !3
  %40 = icmp ne i64 %39, 0
  br label %41

41:                                               ; preds = %38, %35
  %42 = phi i1 [ false, %35 ], [ %40, %38 ]
  br i1 %42, label %43, label %61

43:                                               ; preds = %41
  %44 = load ptr, ptr %8, align 8, !tbaa !10
  %45 = getelementptr inbounds nuw i8, ptr %44, i32 1
  store ptr %45, ptr %8, align 8, !tbaa !10
  %46 = load i8, ptr %44, align 1, !tbaa !42
  %47 = zext i8 %46 to i32
  %48 = load ptr, ptr %12, align 8, !tbaa !10
  %49 = load i64, ptr %11, align 8, !tbaa !3
  %50 = getelementptr inbounds nuw i8, ptr %48, i64 %49
  %51 = load i8, ptr %50, align 1, !tbaa !42
  %52 = zext i8 %51 to i32
  %53 = xor i32 %47, %52
  %54 = trunc i32 %53 to i8
  %55 = load ptr, ptr %7, align 8, !tbaa !10
  %56 = getelementptr inbounds nuw i8, ptr %55, i32 1
  store ptr %56, ptr %7, align 8, !tbaa !10
  store i8 %54, ptr %55, align 1, !tbaa !42
  %57 = load i64, ptr %11, align 8, !tbaa !3
  %58 = add i64 %57, 1
  store i64 %58, ptr %11, align 8, !tbaa !3
  %59 = load i64, ptr %9, align 8, !tbaa !3
  %60 = add i64 %59, -1
  store i64 %60, ptr %9, align 8, !tbaa !3
  br label %35, !llvm.loop !47

61:                                               ; preds = %41
  %62 = load ptr, ptr %6, align 8, !tbaa !30
  %63 = load i64, ptr %11, align 8, !tbaa !3
  %64 = urem i64 %63, 16
  %65 = trunc i64 %64 to i32
  %66 = call i32 @EVP_CIPHER_CTX_set_num(ptr noundef %62, i32 noundef %65)
  store i32 0, ptr %13, align 4
  br label %67

67:                                               ; preds = %61, %33
  call void @llvm.lifetime.end.p0(i64 8, ptr %12) #7
  %68 = load i32, ptr %13, align 4
  switch i32 %68, label %141 [
    i32 0, label %69
  ]

69:                                               ; preds = %67
  br label %70

70:                                               ; preds = %69, %4
  %71 = load i64, ptr %9, align 8, !tbaa !3
  %72 = icmp eq i64 %71, 0
  br i1 %72, label %73, label %74

73:                                               ; preds = %70
  store i32 1, ptr %5, align 4
  store i32 1, ptr %13, align 4
  br label %141

74:                                               ; preds = %70
  %75 = load ptr, ptr %10, align 8, !tbaa !32
  %76 = getelementptr inbounds nuw %struct.padlock_cipher_data, ptr %75, i32 0, i32 0
  %77 = getelementptr inbounds [16 x i8], ptr %76, i64 0, i64 0
  %78 = load ptr, ptr %6, align 8, !tbaa !30
  %79 = call ptr @EVP_CIPHER_CTX_iv(ptr noundef %78)
  call void @llvm.memcpy.p0.p0.i64(ptr align 4 %77, ptr align 1 %79, i64 16, i1 false)
  %80 = load i64, ptr %9, align 8, !tbaa !3
  %81 = and i64 %80, -16
  store i64 %81, ptr %11, align 8, !tbaa !3
  %82 = icmp ne i64 %81, 0
  br i1 %82, label %83, label %95

83:                                               ; preds = %74
  %84 = load ptr, ptr %7, align 8, !tbaa !10
  %85 = load ptr, ptr %8, align 8, !tbaa !10
  %86 = load ptr, ptr %10, align 8, !tbaa !32
  %87 = load i64, ptr %11, align 8, !tbaa !3
  %88 = call i32 @padlock_ofb_encrypt(ptr noundef %84, ptr noundef %85, ptr noundef %86, i64 noundef %87)
  %89 = icmp ne i32 %88, 0
  br i1 %89, label %91, label %90

90:                                               ; preds = %83
  store i32 0, ptr %5, align 4
  store i32 1, ptr %13, align 4
  br label %141

91:                                               ; preds = %83
  %92 = load i64, ptr %11, align 8, !tbaa !3
  %93 = load i64, ptr %9, align 8, !tbaa !3
  %94 = sub i64 %93, %92
  store i64 %94, ptr %9, align 8, !tbaa !3
  br label %95

95:                                               ; preds = %91, %74
  %96 = load i64, ptr %9, align 8, !tbaa !3
  %97 = icmp ne i64 %96, 0
  br i1 %97, label %98, label %135

98:                                               ; preds = %95
  call void @llvm.lifetime.start.p0(i64 8, ptr %14) #7
  %99 = load ptr, ptr %10, align 8, !tbaa !32
  %100 = getelementptr inbounds nuw %struct.padlock_cipher_data, ptr %99, i32 0, i32 0
  %101 = getelementptr inbounds [16 x i8], ptr %100, i64 0, i64 0
  store ptr %101, ptr %14, align 8, !tbaa !10
  %102 = load i64, ptr %11, align 8, !tbaa !3
  %103 = load ptr, ptr %7, align 8, !tbaa !10
  %104 = getelementptr inbounds nuw i8, ptr %103, i64 %102
  store ptr %104, ptr %7, align 8, !tbaa !10
  %105 = load i64, ptr %11, align 8, !tbaa !3
  %106 = load ptr, ptr %8, align 8, !tbaa !10
  %107 = getelementptr inbounds nuw i8, ptr %106, i64 %105
  store ptr %107, ptr %8, align 8, !tbaa !10
  %108 = load ptr, ptr %6, align 8, !tbaa !30
  %109 = load i64, ptr %9, align 8, !tbaa !3
  %110 = trunc i64 %109 to i32
  %111 = call i32 @EVP_CIPHER_CTX_set_num(ptr noundef %108, i32 noundef %110)
  call void @padlock_reload_key()
  %112 = load ptr, ptr %14, align 8, !tbaa !10
  %113 = load ptr, ptr %14, align 8, !tbaa !10
  %114 = load ptr, ptr %10, align 8, !tbaa !32
  call void @padlock_aes_block(ptr noundef %112, ptr noundef %113, ptr noundef %114)
  call void @padlock_reload_key()
  br label %115

115:                                              ; preds = %118, %98
  %116 = load i64, ptr %9, align 8, !tbaa !3
  %117 = icmp ne i64 %116, 0
  br i1 %117, label %118, label %134

118:                                              ; preds = %115
  %119 = load ptr, ptr %8, align 8, !tbaa !10
  %120 = getelementptr inbounds nuw i8, ptr %119, i32 1
  store ptr %120, ptr %8, align 8, !tbaa !10
  %121 = load i8, ptr %119, align 1, !tbaa !42
  %122 = zext i8 %121 to i32
  %123 = load ptr, ptr %14, align 8, !tbaa !10
  %124 = load i8, ptr %123, align 1, !tbaa !42
  %125 = zext i8 %124 to i32
  %126 = xor i32 %122, %125
  %127 = trunc i32 %126 to i8
  %128 = load ptr, ptr %7, align 8, !tbaa !10
  %129 = getelementptr inbounds nuw i8, ptr %128, i32 1
  store ptr %129, ptr %7, align 8, !tbaa !10
  store i8 %127, ptr %128, align 1, !tbaa !42
  %130 = load ptr, ptr %14, align 8, !tbaa !10
  %131 = getelementptr inbounds nuw i8, ptr %130, i32 1
  store ptr %131, ptr %14, align 8, !tbaa !10
  %132 = load i64, ptr %9, align 8, !tbaa !3
  %133 = add i64 %132, -1
  store i64 %133, ptr %9, align 8, !tbaa !3
  br label %115, !llvm.loop !48

134:                                              ; preds = %115
  call void @llvm.lifetime.end.p0(i64 8, ptr %14) #7
  br label %135

135:                                              ; preds = %134, %95
  %136 = load ptr, ptr %6, align 8, !tbaa !30
  %137 = call ptr @EVP_CIPHER_CTX_iv_noconst(ptr noundef %136)
  %138 = load ptr, ptr %10, align 8, !tbaa !32
  %139 = getelementptr inbounds nuw %struct.padlock_cipher_data, ptr %138, i32 0, i32 0
  %140 = getelementptr inbounds [16 x i8], ptr %139, i64 0, i64 0
  call void @llvm.memcpy.p0.p0.i64(ptr align 1 %137, ptr align 4 %140, i64 16, i1 false)
  store i32 1, ptr %5, align 4
  store i32 1, ptr %13, align 4
  br label %141

141:                                              ; preds = %135, %90, %73, %67
  call void @llvm.lifetime.end.p0(i64 8, ptr %11) #7
  call void @llvm.lifetime.end.p0(i64 8, ptr %10) #7
  %142 = load i32, ptr %5, align 4
  ret i32 %142
}