; Function Attrs: nounwind uwtable
define internal range(i32 0, 2) i32 @padlock_ofb_cipher(ptr noundef %0, ptr noundef %1, ptr noundef %2, i64 noundef %3) #1 {
  %5 = tail call ptr @EVP_CIPHER_CTX_get_cipher_data(ptr noundef %0) #10
  %6 = tail call ptr @EVP_CIPHER_CTX_get_cipher_data(ptr noundef %0) #10
  %7 = ptrtoint ptr %6 to i64
  %8 = sub i64 0, %7
  %9 = and i64 %8, 15
  %10 = getelementptr inbounds nuw i8, ptr %5, i64 %9
  %11 = tail call i32 @EVP_CIPHER_CTX_get_num(ptr noundef %0) #10
  %.not = icmp eq i32 %11, 0
  br i1 %.not, label %30, label %12

12:                                               ; preds = %4
  %13 = tail call ptr @EVP_CIPHER_CTX_iv_noconst(ptr noundef %0) #10
  %14 = icmp ult i32 %11, 16
  br i1 %14, label %.preheader, label %.thread

.preheader:                                       ; preds = %12
  %.not82 = icmp eq i64 %3, 0
  br i1 %.not82, label %._crit_edge, label %.lr.ph.preheader

.lr.ph.preheader:                                 ; preds = %.preheader
  %15 = zext nneg i32 %11 to i64
  br label %.lr.ph

.lr.ph:                                           ; preds = %.lr.ph.preheader, %.lr.ph
  %.04774 = phi i64 [ %22, %.lr.ph ], [ %15, %.lr.ph.preheader ]
  %.273 = phi ptr [ %21, %.lr.ph ], [ %1, %.lr.ph.preheader ]
  %.25272 = phi i64 [ %23, %.lr.ph ], [ %3, %.lr.ph.preheader ]
  %.25671 = phi ptr [ %16, %.lr.ph ], [ %2, %.lr.ph.preheader ]
  %16 = getelementptr inbounds nuw i8, ptr %.25671, i64 1
  %17 = load i8, ptr %.25671, align 1, !tbaa !24
  %18 = getelementptr inbounds nuw i8, ptr %13, i64 %.04774
  %19 = load i8, ptr %18, align 1, !tbaa !24
  %20 = xor i8 %19, %17
  %21 = getelementptr inbounds nuw i8, ptr %.273, i64 1
  store i8 %20, ptr %.273, align 1, !tbaa !24
  %22 = add nuw nsw i64 %.04774, 1
  %23 = add i64 %.25272, -1
  %24 = icmp samesign ult i64 %.04774, 15
  %25 = icmp ne i64 %23, 0
  %26 = select i1 %24, i1 %25, i1 false
  br i1 %26, label %.lr.ph, label %._crit_edge.loopexit, !llvm.loop !29

._crit_edge.loopexit:                             ; preds = %.lr.ph
  %27 = trunc i64 %22 to i32
  br label %._crit_edge

._crit_edge:                                      ; preds = %._crit_edge.loopexit, %.preheader
  %.256.lcssa = phi ptr [ %2, %.preheader ], [ %16, %._crit_edge.loopexit ]
  %.252.lcssa = phi i64 [ 0, %.preheader ], [ %23, %._crit_edge.loopexit ]
  %.2.lcssa = phi ptr [ %1, %.preheader ], [ %21, %._crit_edge.loopexit ]
  %.047.lcssa = phi i32 [ %11, %.preheader ], [ %27, %._crit_edge.loopexit ]
  %28 = and i32 %.047.lcssa, 15
  %29 = tail call i32 @EVP_CIPHER_CTX_set_num(ptr noundef %0, i32 noundef %28) #10
  br label %30

30:                                               ; preds = %._crit_edge, %4
  %.054 = phi ptr [ %.256.lcssa, %._crit_edge ], [ %2, %4 ]
  %.050 = phi i64 [ %.252.lcssa, %._crit_edge ], [ %3, %4 ]
  %.048 = phi ptr [ %.2.lcssa, %._crit_edge ], [ %1, %4 ]
  %31 = icmp eq i64 %.050, 0
  br i1 %31, label %.thread, label %32

32:                                               ; preds = %30
  %33 = tail call ptr @EVP_CIPHER_CTX_iv(ptr noundef %0) #10
  tail call void @llvm.memcpy.p0.p0.i64(ptr noundef nonnull align 4 dereferenceable(16) %10, ptr noundef nonnull align 1 dereferenceable(16) %33, i64 16, i1 false)
  %34 = and i64 %.050, -16
  %.not60 = icmp eq i64 %34, 0
  br i1 %.not60, label %.thread67, label %35

35:                                               ; preds = %32
  %36 = tail call i32 @padlock_ofb_encrypt(ptr noundef %.048, ptr noundef %.054, ptr noundef nonnull %10, i64 noundef %34) #10
  %.not61 = icmp eq i32 %36, 0
  br i1 %.not61, label %.thread, label %37

37:                                               ; preds = %35
  %38 = and i64 %.050, 15
  %.not62 = icmp eq i64 %38, 0
  br i1 %.not62, label %.loopexit, label %.thread67

.thread67:                                        ; preds = %32, %37
  %.35370 = phi i64 [ %38, %37 ], [ %.050, %32 ]
  %39 = getelementptr inbounds nuw i8, ptr %.048, i64 %34
  %40 = getelementptr inbounds nuw i8, ptr %.054, i64 %34
  %41 = trunc i64 %.35370 to i32
  %42 = tail call i32 @EVP_CIPHER_CTX_set_num(ptr noundef %0, i32 noundef %41) #10
  tail call void @padlock_reload_key() #10
  tail call void @padlock_aes_block(ptr noundef nonnull %10, ptr noundef nonnull %10, ptr noundef nonnull %10) #10
  tail call void @padlock_reload_key() #10
  br label %43

43:                                               ; preds = %.thread67, %43
  %.081 = phi ptr [ %10, %.thread67 ], [ %49, %43 ]
  %.380 = phi ptr [ %39, %.thread67 ], [ %48, %43 ]
  %.479 = phi i64 [ %.35370, %.thread67 ], [ %50, %43 ]
  %.35778 = phi ptr [ %40, %.thread67 ], [ %44, %43 ]
  %44 = getelementptr inbounds nuw i8, ptr %.35778, i64 1
  %45 = load i8, ptr %.35778, align 1, !tbaa !24
  %46 = load i8, ptr %.081, align 1, !tbaa !24
  %47 = xor i8 %46, %45
  %48 = getelementptr inbounds nuw i8, ptr %.380, i64 1
  store i8 %47, ptr %.380, align 1, !tbaa !24
  %49 = getelementptr inbounds nuw i8, ptr %.081, i64 1
  %50 = add i64 %.479, -1
  %.not63 = icmp eq i64 %50, 0
  br i1 %.not63, label %.loopexit, label %43, !llvm.loop !30

.loopexit:                                        ; preds = %43, %37
  %51 = tail call ptr @EVP_CIPHER_CTX_iv_noconst(ptr noundef %0) #10
  tail call void @llvm.memcpy.p0.p0.i64(ptr noundef nonnull align 1 dereferenceable(16) %51, ptr noundef nonnull align 4 dereferenceable(16) %10, i64 16, i1 false)
  br label %.thread

.thread:                                          ; preds = %12, %35, %30, %.loopexit
  %.1 = phi i32 [ 1, %.loopexit ], [ 1, %30 ], [ 0, %35 ], [ 0, %12 ]
  ret i32 %.1
}